target datalayout = "e-m:e-p270:32:32-p271:32:32-p272:64:64-i64:64-i128:128-f80:128-n8:16:32:64-S128"
target triple = "x86_64-pc-linux-gnu"

%"class.llvm::ilist_iterator_w_bits" = type <{ ptr, i8, i8, [6 x i8] }>
%"class.llvm::FoldingSetBase::Node" = type { ptr }
%"class.llvm::FoldingSetNodeIDRef" = type { ptr, i64 }
%"class.llvm::SCEV.base" = type <{ %"class.llvm::FoldingSetBase::Node", %"class.llvm::FoldingSetNodeIDRef", i16, i16, i16 }>
%"class.llvm::SCEVCastExpr" = type { %"class.llvm::SCEV.base", ptr, ptr }

; Function Attrs: mustprogress nounwind uwtable
define linkonce_odr hidden noundef ptr @_ZNK4llvm12SCEVCastExpr7getTypeEv(ptr noundef nonnull align 8 dereferenceable(48) %0) #1 comdat align 2 {
  %2 = alloca ptr, align 8
  store ptr %0, ptr %2, align 8
  %3 = load ptr, ptr %2, align 8
  %4 = getelementptr inbounds nuw %"class.llvm::SCEVCastExpr", ptr %3, i32 0, i32 2
  %5 = load ptr, ptr %4, align 8
  ret ptr %5
}

; Function Attrs: mustprogress nounwind uwtable
define linkonce_odr hidden noundef ptr @_ZNK4llvm12SCEVCastExpr10getOperandEv(ptr noundef nonnull align 8 dereferenceable(48) %0) #1 comdat align 2 {
  %2 = alloca ptr, align 8
  store ptr %0, ptr %2, align 8
  %3 = load ptr, ptr %2, align 8
  %4 = getelementptr inbounds nuw %"class.llvm::SCEVCastExpr", ptr %3, i32 0, i32 1
  %5 = load ptr, ptr %4, align 8
  ret ptr %5
}

; Function Attrs: mustprogress nounwind uwtable
define dso_local noundef ptr @_ZN4llvm12SCEVExpander17visitPtrToIntExprEPKNS_16SCEVPtrToIntExprE(ptr noundef nonnull align 8 dereferenceable(816) %0, ptr noundef %1) #1 align 2 {
  %3 = alloca ptr, align 8
  %4 = alloca ptr, align 8
  %5 = alloca ptr, align 8
  %6 = alloca %"class.llvm::ilist_iterator_w_bits", align 8
  %7 = alloca { ptr, i64 }, align 8
  store ptr %0, ptr %3, align 8
  store ptr %1, ptr %4, align 8
  %8 = load ptr, ptr %3, align 8
  %9 = load ptr, ptr %4, align 8
  %10 = call noundef ptr @_ZNK4llvm12SCEVCastExpr10getOperandEv(ptr noundef nonnull align 8 dereferenceable(48) %9)
  %11 = call noundef ptr @_ZN4llvm12SCEVExpander6expandEPKNS_4SCEVE(ptr noundef nonnull align 8 dereferenceable(816) %8, ptr noundef %10)
  store ptr %11, ptr %5, align 8
  %12 = load ptr, ptr %5, align 8
  %13 = load ptr, ptr %4, align 8
  %14 = call noundef ptr @_ZNK4llvm12SCEVCastExpr7getTypeEv(ptr noundef nonnull align 8 dereferenceable(48) %13)
  %15 = load ptr, ptr %5, align 8
  %16 = call { ptr, i64 } @_ZNK4llvm12SCEVExpander33GetOptimalInsertionPointForCastOfEPNS_5ValueE(ptr noundef nonnull align 8 dereferenceable(816) %8, ptr noundef %15)
  store { ptr, i64 } %16, ptr %7, align 8
  call void @llvm.memcpy.p0.p0.i64(ptr align 8 %6, ptr align 8 %7, i64 10, i1 false)
  %17 = getelementptr inbounds nuw { ptr, i64 }, ptr %6, i32 0, i32 0
  %18 = load ptr, ptr %17, align 8
  %19 = getelementptr inbounds nuw { ptr, i64 }, ptr %6, i32 0, i32 1
  %20 = load i64, ptr %19, align 8
  %21 = call noundef ptr @_ZN4llvm12SCEVExpander17ReuseOrCreateCastEPNS_5ValueEPNS_4TypeENS_11Instruction7CastOpsENS_21ilist_iterator_w_bitsINS_12ilist_detail12node_optionsIS5_Lb0ELb0EvLb1ENS_10BasicBlockEEELb0ELb0EEE(ptr noundef nonnull align 8 dereferenceable(816) %8, ptr noundef %12, ptr noundef %14, i32 noundef 47, ptr %18, i64 %20)
  ret ptr %21
}