; Function Attrs: mustprogress nounwind uwtable
define dso_local noundef ptr @_ZN4llvm12SCEVExpander17visitPtrToIntExprEPKNS_16SCEVPtrToIntExprE(ptr noundef nonnull align 8 dereferenceable(816) %0, ptr noundef readonly captures(none) %1) local_unnamed_addr #0 align 2 {
  %3 = getelementptr inbounds nuw i8, ptr %1, i64 32
  %4 = load ptr, ptr %3, align 8
  %5 = tail call noundef ptr @_ZN4llvm12SCEVExpander6expandEPKNS_4SCEVE(ptr noundef nonnull align 8 dereferenceable(816) %0, ptr noundef %4)
  %6 = getelementptr inbounds nuw i8, ptr %1, i64 40
  %7 = load ptr, ptr %6, align 8
  %8 = tail call { ptr, i64 } @_ZNK4llvm12SCEVExpander33GetOptimalInsertionPointForCastOfEPNS_5ValueE(ptr noundef nonnull align 8 dereferenceable(816) %0, ptr noundef %5)
  %.fca.0.extract = extractvalue { ptr, i64 } %8, 0
  %9 = tail call noundef ptr @_ZN4llvm12SCEVExpander17ReuseOrCreateCastEPNS_5ValueEPNS_4TypeENS_11Instruction7CastOpsENS_21ilist_iterator_w_bitsINS_12ilist_detail12node_optionsIS5_Lb0ELb0EvLb1ENS_10BasicBlockEEELb0ELb0EEE(ptr noundef nonnull align 8 dereferenceable(816) %0, ptr noundef %5, ptr noundef %7, i32 noundef 47, ptr %.fca.0.extract, i64 poison)
  ret ptr %9
}